; Function Attrs: nounwind uwtable
define internal fastcc range(i32 -1094995529, 1) i32 @cbs_av1_write_increment(ptr noundef readonly captures(none) %0, ptr noundef %1, i32 noundef %2, i32 noundef %3, ptr noundef %4, i32 noundef %5) unnamed_addr #0 {
  %7 = getelementptr inbounds nuw i8, ptr %0, i64 36
  %8 = load i32, ptr %7, align 4, !tbaa !4
  %.not = icmp eq i32 %8, 0
  br i1 %.not, label %21, label %9

9:                                                ; preds = %6
  %10 = getelementptr inbounds nuw i8, ptr %1, i64 16
  %11 = load ptr, ptr %10, align 8, !tbaa !83
  %12 = getelementptr inbounds nuw i8, ptr %1, i64 8
  %13 = load ptr, ptr %12, align 8, !tbaa !86
  %14 = ptrtoint ptr %11 to i64
  %15 = ptrtoint ptr %13 to i64
  %16 = sub i64 %14, %15
  %17 = getelementptr inbounds nuw i8, ptr %1, i64 4
  %18 = load i32, ptr %17, align 4, !tbaa !81
  %.tr.i = trunc i64 %16 to i32
  %19 = shl i32 %.tr.i, 3
  %reass.sub = sub i32 %19, %18
  %20 = add i32 %reass.sub, 32
  br label %21

21:                                               ; preds = %6, %9
  %.042 = phi i32 [ %20, %9 ], [ undef, %6 ]
  %.not48 = icmp ugt i32 %2, %3
  br i1 %.not48, label %25, label %22

22:                                               ; preds = %21
  %23 = sub nuw i32 %3, %2
  %24 = icmp ult i32 %23, 32
  br i1 %24, label %26, label %25

25:                                               ; preds = %22, %21
  tail call void (ptr, i32, ptr, ...) @av_log(ptr noundef null, i32 noundef 0, ptr noundef nonnull @.str.8, ptr noundef nonnull @.str.160, ptr noundef nonnull @.str.10, i32 noundef 311) #8
  tail call void @abort() #9
  unreachable

26:                                               ; preds = %22
  %27 = icmp ult i32 %5, %2
  %28 = icmp ugt i32 %5, %3
  %or.cond = or i1 %27, %28
  br i1 %or.cond, label %29, label %31

29:                                               ; preds = %26
  %30 = load ptr, ptr %0, align 8, !tbaa !19
  tail call void (ptr, i32, ptr, ...) @av_log(ptr noundef %30, i32 noundef 16, ptr noundef nonnull @.str.83, ptr noundef %4, i32 noundef %5, i32 noundef %2, i32 noundef %3) #8
  br label %92

31:                                               ; preds = %26
  %32 = icmp eq i32 %5, %3
  %reass.sub57 = sub nuw i32 %5, %2
  %33 = add i32 %reass.sub57, 1
  %.041 = select i1 %32, i32 %23, i32 %33
  %34 = getelementptr inbounds nuw i8, ptr %1, i64 24
  %35 = load ptr, ptr %34, align 8, !tbaa !82
  %36 = getelementptr inbounds nuw i8, ptr %1, i64 16
  %37 = load ptr, ptr %36, align 8, !tbaa !83
  %38 = ptrtoint ptr %35 to i64
  %39 = ptrtoint ptr %37 to i64
  %40 = sub i64 %38, %39
  %41 = getelementptr inbounds nuw i8, ptr %1, i64 4
  %42 = load i32, ptr %41, align 4, !tbaa !81
  %.tr.i51 = trunc i64 %40 to i32
  %43 = shl i32 %.tr.i51, 3
  %44 = add i32 %42, -32
  %45 = add i32 %44, %43
  %46 = icmp slt i32 %45, %.041
  br i1 %46, label %92, label %47

47:                                               ; preds = %31
  %48 = icmp sgt i32 %.041, 0
  br i1 %48, label %49, label %72

49:                                               ; preds = %47
  %notmask = shl nsw i32 -1, %.041
  %50 = xor i32 %notmask, -1
  %51 = icmp ne i32 %5, %3
  %.neg = sext i1 %51 to i32
  %52 = add nsw i32 %50, %.neg
  %53 = load i32, ptr %1, align 8, !tbaa !79
  %54 = icmp slt i32 %.041, %42
  br i1 %54, label %55, label %59

55:                                               ; preds = %49
  %56 = shl i32 %53, %.041
  %57 = or i32 %56, %52
  %58 = sub nsw i32 %42, %.041
  br label %put_bits.exit

59:                                               ; preds = %49
  %60 = icmp ugt i64 %40, 3
  br i1 %60, label %61, label %69

61:                                               ; preds = %59
  %62 = shl i32 %53, %42
  %63 = sub nsw i32 %.041, %42
  %64 = lshr i32 %52, %63
  %65 = or i32 %62, %64
  %66 = tail call i32 @llvm.bswap.i32(i32 %65)
  store i32 %66, ptr %37, align 1, !tbaa !20
  %67 = load ptr, ptr %36, align 8, !tbaa !83
  %68 = getelementptr inbounds nuw i8, ptr %67, i64 4
  store ptr %68, ptr %36, align 8, !tbaa !83
  br label %70

69:                                               ; preds = %59
  tail call void (ptr, i32, ptr, ...) @av_log(ptr noundef null, i32 noundef 16, ptr noundef nonnull @.str.318) #8
  br label %70

70:                                               ; preds = %69, %61
  %reass.sub58 = sub i32 %42, %.041
  %71 = add i32 %reass.sub58, 32
  %.pre.pre = load i32, ptr %7, align 4, !tbaa !4
  br label %put_bits.exit

put_bits.exit:                                    ; preds = %55, %70
  %.pre = phi i32 [ %8, %55 ], [ %.pre.pre, %70 ]
  %.026.i.i = phi i32 [ %57, %55 ], [ %52, %70 ]
  %.0.i.i = phi i32 [ %58, %55 ], [ %71, %70 ]
  store i32 %.026.i.i, ptr %1, align 8, !tbaa !79
  store i32 %.0.i.i, ptr %41, align 4, !tbaa !81
  br label %72

72:                                               ; preds = %47, %put_bits.exit
  %73 = phi i32 [ %42, %47 ], [ %.0.i.i, %put_bits.exit ]
  %74 = phi i32 [ %8, %47 ], [ %.pre, %put_bits.exit ]
  %.not49 = icmp eq i32 %74, 0
  br i1 %.not49, label %92, label %75

75:                                               ; preds = %72
  %76 = load ptr, ptr %36, align 8, !tbaa !83
  %77 = getelementptr inbounds nuw i8, ptr %1, i64 8
  %78 = load ptr, ptr %77, align 8, !tbaa !86
  %79 = ptrtoint ptr %76 to i64
  %80 = ptrtoint ptr %78 to i64
  %81 = sub i64 %79, %80
  %.tr.i53 = trunc i64 %81 to i32
  %82 = shl i32 %.tr.i53, 3
  %reass.sub.i54 = sub i32 %82, %73
  %83 = add i32 %reass.sub.i54, 32
  %.not50 = icmp sgt i32 %.042, %83
  br i1 %.not50, label %84, label %85

84:                                               ; preds = %75
  tail call void (ptr, i32, ptr, ...) @av_log(ptr noundef null, i32 noundef 0, ptr noundef nonnull @.str.8, ptr noundef nonnull @.str.28, ptr noundef nonnull @.str.10, i32 noundef 329) #8
  tail call void @abort() #9
  unreachable

85:                                               ; preds = %75
  %86 = getelementptr inbounds nuw i8, ptr %0, i64 64
  %87 = load ptr, ptr %86, align 8, !tbaa !97
  %88 = getelementptr inbounds nuw i8, ptr %0, i64 48
  %89 = load ptr, ptr %88, align 8, !tbaa !98
  %90 = sub nsw i32 %83, %.042
  %91 = zext i32 %5 to i64
  tail call void %87(ptr noundef %89, ptr noundef nonnull %1, i32 noundef %90, ptr noundef %4, ptr noundef null, i64 noundef %91) #8
  br label %92

92:                                               ; preds = %72, %85, %31, %29
  %.0 = phi i32 [ -1094995529, %29 ], [ -28, %31 ], [ 0, %85 ], [ 0, %72 ]
  ret i32 %.0
}